; Function Attrs: mustprogress nofree norecurse nosync nounwind willreturn memory(argmem: write) uwtable
define dso_local void @_ZN4llvm16TargetIRAnalysisC2Ev(ptr nocapture noundef nonnull writeonly align 8 dereferenceable(32) %0) unnamed_addr #10 align 2 {
_ZNSt8functionIFN4llvm19TargetTransformInfoERKNS0_8FunctionEEEC2IPS5_vEEOT_.exit:
  %1 = getelementptr inbounds i8, ptr %0, i64 8
  store i64 0, ptr %1, align 8
  %2 = getelementptr inbounds nuw i8, ptr %0, i64 24
  %3 = getelementptr inbounds nuw i8, ptr %0, i64 16
  store ptr @_ZN4llvm16TargetIRAnalysis13getDefaultTTIERKNS_8FunctionE, ptr %0, align 8
  store ptr @_ZNSt17_Function_handlerIFN4llvm19TargetTransformInfoERKNS0_8FunctionEEPS5_E9_M_invokeERKSt9_Any_dataS4_, ptr %2, align 8
  store ptr @_ZNSt17_Function_handlerIFN4llvm19TargetTransformInfoERKNS0_8FunctionEEPS5_E10_M_managerERSt9_Any_dataRKS8_St18_Manager_operation, ptr %3, align 8
  ret void
}